; Function Attrs: nounwind uwtable
define noalias noundef nonnull ptr @l_Array_forIn_x27Unsafe_loop___at_Lake_Toml_elabToml___spec__2___boxed(ptr noundef %0, ptr noundef %1, ptr noundef %2, ptr noundef %3, ptr noundef %4, ptr noundef %5, ptr noundef %6, ptr noundef %7, ptr noundef %8, ptr noundef %9, ptr noundef %10, ptr noundef %11) #2 {
  %13 = getelementptr i8, ptr %5, i64 8
  %.val44 = load i64, ptr %13, align 8, !tbaa !15
  %14 = ptrtoint ptr %5 to i64
  %15 = and i64 %14, 1
  %.not = icmp eq i64 %15, 0
  br i1 %.not, label %16, label %lean_dec.exit29

16:                                               ; preds = %12
  %17 = load i32, ptr %5, align 4, !tbaa !4
  %18 = icmp sgt i32 %17, 1
  br i1 %18, label %19, label %21, !prof !11

19:                                               ; preds = %16
  %20 = add nsw i32 %17, -1
  store i32 %20, ptr %5, align 4, !tbaa !4
  br label %lean_dec.exit29

21:                                               ; preds = %16
  %.not.i = icmp eq i32 %17, 0
  br i1 %.not.i, label %lean_dec.exit29, label %22

22:                                               ; preds = %21
  tail call void @lean_dec_ref_cold(ptr noundef nonnull %5) #8
  br label %lean_dec.exit29

lean_dec.exit29:                                  ; preds = %22, %21, %19, %12
  %23 = getelementptr i8, ptr %6, i64 8
  %.val = load i64, ptr %23, align 8, !tbaa !15
  %24 = ptrtoint ptr %6 to i64
  %25 = and i64 %24, 1
  %.not45 = icmp eq i64 %25, 0
  br i1 %.not45, label %26, label %lean_dec.exit28

26:                                               ; preds = %lean_dec.exit29
  %27 = load i32, ptr %6, align 4, !tbaa !4
  %28 = icmp sgt i32 %27, 1
  br i1 %28, label %29, label %31, !prof !11

29:                                               ; preds = %26
  %30 = add nsw i32 %27, -1
  store i32 %30, ptr %6, align 4, !tbaa !4
  br label %lean_dec.exit28

31:                                               ; preds = %26
  %.not.i30 = icmp eq i32 %27, 0
  br i1 %.not.i30, label %lean_dec.exit28, label %32

32:                                               ; preds = %31
  tail call void @lean_dec_ref_cold(ptr noundef nonnull %6) #8
  br label %lean_dec.exit28

lean_dec.exit28:                                  ; preds = %32, %31, %29, %lean_dec.exit29
  %33 = ptrtoint ptr %7 to i64
  %34 = lshr i64 %33, 1
  %35 = trunc i64 %34 to i8
  %36 = and i64 %33, 1
  %.not46 = icmp eq i64 %36, 0
  br i1 %.not46, label %37, label %lean_dec.exit27

37:                                               ; preds = %lean_dec.exit28
  %38 = load i32, ptr %7, align 4, !tbaa !4
  %39 = icmp sgt i32 %38, 1
  br i1 %39, label %40, label %42, !prof !11

40:                                               ; preds = %37
  %41 = add nsw i32 %38, -1
  store i32 %41, ptr %7, align 4, !tbaa !4
  br label %lean_dec.exit27

42:                                               ; preds = %37
  %.not.i32 = icmp eq i32 %38, 0
  br i1 %.not.i32, label %lean_dec.exit27, label %43

43:                                               ; preds = %42
  tail call void @lean_dec_ref_cold(ptr noundef nonnull %7) #8
  br label %lean_dec.exit27

lean_dec.exit27:                                  ; preds = %43, %42, %40, %lean_dec.exit28
  %44 = tail call ptr @l_Array_forIn_x27Unsafe_loop___at_Lake_Toml_elabToml___spec__2(ptr poison, ptr poison, ptr poison, ptr poison, ptr noundef %4, i64 noundef %.val44, i64 noundef %.val, i8 noundef zeroext %35, ptr noundef %8, ptr noundef %9, ptr noundef %10, ptr noundef %11)
  %45 = ptrtoint ptr %4 to i64
  %46 = and i64 %45, 1
  %.not47 = icmp eq i64 %46, 0
  br i1 %.not47, label %47, label %lean_dec.exit26

47:                                               ; preds = %lean_dec.exit27
  %48 = load i32, ptr %4, align 4, !tbaa !4
  %49 = icmp sgt i32 %48, 1
  br i1 %49, label %50, label %52, !prof !11

50:                                               ; preds = %47
  %51 = add nsw i32 %48, -1
  store i32 %51, ptr %4, align 4, !tbaa !4
  br label %lean_dec.exit26

52:                                               ; preds = %47
  %.not.i34 = icmp eq i32 %48, 0
  br i1 %.not.i34, label %lean_dec.exit26, label %53

53:                                               ; preds = %52
  tail call void @lean_dec_ref_cold(ptr noundef nonnull %4) #8
  br label %lean_dec.exit26

lean_dec.exit26:                                  ; preds = %53, %52, %50, %lean_dec.exit27
  %54 = ptrtoint ptr %3 to i64
  %55 = and i64 %54, 1
  %.not48 = icmp eq i64 %55, 0
  br i1 %.not48, label %56, label %lean_dec.exit25

56:                                               ; preds = %lean_dec.exit26
  %57 = load i32, ptr %3, align 4, !tbaa !4
  %58 = icmp sgt i32 %57, 1
  br i1 %58, label %59, label %61, !prof !11

59:                                               ; preds = %56
  %60 = add nsw i32 %57, -1
  store i32 %60, ptr %3, align 4, !tbaa !4
  br label %lean_dec.exit25

61:                                               ; preds = %56
  %.not.i36 = icmp eq i32 %57, 0
  br i1 %.not.i36, label %lean_dec.exit25, label %62

62:                                               ; preds = %61
  tail call void @lean_dec_ref_cold(ptr noundef nonnull %3) #8
  br label %lean_dec.exit25

lean_dec.exit25:                                  ; preds = %62, %61, %59, %lean_dec.exit26
  %63 = ptrtoint ptr %2 to i64
  %64 = and i64 %63, 1
  %.not49 = icmp eq i64 %64, 0
  br i1 %.not49, label %65, label %lean_dec.exit24

65:                                               ; preds = %lean_dec.exit25
  %66 = load i32, ptr %2, align 4, !tbaa !4
  %67 = icmp sgt i32 %66, 1
  br i1 %67, label %68, label %70, !prof !11

68:                                               ; preds = %65
  %69 = add nsw i32 %66, -1
  store i32 %69, ptr %2, align 4, !tbaa !4
  br label %lean_dec.exit24

70:                                               ; preds = %65
  %.not.i38 = icmp eq i32 %66, 0
  br i1 %.not.i38, label %lean_dec.exit24, label %71

71:                                               ; preds = %70
  tail call void @lean_dec_ref_cold(ptr noundef nonnull %2) #8
  br label %lean_dec.exit24

lean_dec.exit24:                                  ; preds = %71, %70, %68, %lean_dec.exit25
  %72 = ptrtoint ptr %1 to i64
  %73 = and i64 %72, 1
  %.not50 = icmp eq i64 %73, 0
  br i1 %.not50, label %74, label %lean_dec.exit23

74:                                               ; preds = %lean_dec.exit24
  %75 = load i32, ptr %1, align 4, !tbaa !4
  %76 = icmp sgt i32 %75, 1
  br i1 %76, label %77, label %79, !prof !11

77:                                               ; preds = %74
  %78 = add nsw i32 %75, -1
  store i32 %78, ptr %1, align 4, !tbaa !4
  br label %lean_dec.exit23

79:                                               ; preds = %74
  %.not.i40 = icmp eq i32 %75, 0
  br i1 %.not.i40, label %lean_dec.exit23, label %80

80:                                               ; preds = %79
  tail call void @lean_dec_ref_cold(ptr noundef nonnull %1) #8
  br label %lean_dec.exit23

lean_dec.exit23:                                  ; preds = %80, %79, %77, %lean_dec.exit24
  %81 = ptrtoint ptr %0 to i64
  %82 = and i64 %81, 1
  %.not51 = icmp eq i64 %82, 0
  br i1 %.not51, label %83, label %lean_dec.exit

83:                                               ; preds = %lean_dec.exit23
  %84 = load i32, ptr %0, align 4, !tbaa !4
  %85 = icmp sgt i32 %84, 1
  br i1 %85, label %86, label %88, !prof !11

86:                                               ; preds = %83
  %87 = add nsw i32 %84, -1
  store i32 %87, ptr %0, align 4, !tbaa !4
  br label %lean_dec.exit

88:                                               ; preds = %83
  %.not.i42 = icmp eq i32 %84, 0
  br i1 %.not.i42, label %lean_dec.exit, label %89

89:                                               ; preds = %88
  tail call void @lean_dec_ref_cold(ptr noundef nonnull %0) #8
  br label %lean_dec.exit

lean_dec.exit:                                    ; preds = %89, %88, %86, %lean_dec.exit23
  ret ptr %44
}